; Function Attrs: nounwind uwtable
define ptr @l_Lean_Parser_resolveParserNameCore___lambda__4(ptr noundef %0, ptr noundef %1, ptr noundef %2, ptr noundef %3, ptr readnone captures(none) %4) local_unnamed_addr #1 {
  %6 = ptrtoint ptr %0 to i64
  %7 = and i64 %6, 1
  %.not = icmp eq i64 %7, 0
  br i1 %.not, label %8, label %lean_inc.exit25

8:                                                ; preds = %5
  %.val.i = load i32, ptr %0, align 4, !tbaa !4
  %9 = icmp sgt i32 %.val.i, 0
  br i1 %9, label %10, label %12, !prof !11

10:                                               ; preds = %8
  %11 = add nuw i32 %.val.i, 1
  store i32 %11, ptr %0, align 4, !tbaa !4
  br label %lean_inc.exit25

12:                                               ; preds = %8
  %.not.i38 = icmp eq i32 %.val.i, 0
  br i1 %.not.i38, label %lean_inc.exit25, label %13

13:                                               ; preds = %12
  tail call void @lean_inc_ref_cold(ptr noundef nonnull %0) #6
  br label %lean_inc.exit25

lean_inc.exit25:                                  ; preds = %13, %12, %10, %5
  %14 = tail call ptr @lean_erase_macro_scopes(ptr noundef %0) #6
  %15 = ptrtoint ptr %1 to i64
  %16 = and i64 %15, 1
  %.not43 = icmp eq i64 %16, 0
  br i1 %.not43, label %17, label %lean_inc.exit

17:                                               ; preds = %lean_inc.exit25
  %.val.i39 = load i32, ptr %1, align 4, !tbaa !4
  %18 = icmp sgt i32 %.val.i39, 0
  br i1 %18, label %19, label %21, !prof !11

19:                                               ; preds = %17
  %20 = add nuw i32 %.val.i39, 1
  store i32 %20, ptr %1, align 4, !tbaa !4
  br label %lean_inc.exit

21:                                               ; preds = %17
  %.not.i40 = icmp eq i32 %.val.i39, 0
  br i1 %.not.i40, label %lean_inc.exit, label %22

22:                                               ; preds = %21
  tail call void @lean_inc_ref_cold(ptr noundef nonnull %1) #6
  br label %lean_inc.exit

lean_inc.exit:                                    ; preds = %22, %21, %19, %lean_inc.exit25
  %23 = tail call zeroext i8 @l_Lean_Parser_isParserCategory(ptr noundef %1, ptr noundef %14)
  %24 = icmp eq i8 %23, 0
  br i1 %24, label %25, label %36

25:                                               ; preds = %lean_inc.exit
  %26 = tail call ptr @l_Lean_Parser_resolveParserNameCore___lambda__3(ptr noundef %1, ptr noundef %2, ptr noundef %3, ptr noundef %0, ptr noundef %14, ptr nonnull poison)
  %27 = ptrtoint ptr %14 to i64
  %28 = and i64 %27, 1
  %.not46 = icmp eq i64 %28, 0
  br i1 %.not46, label %29, label %lean_dec.exit29

29:                                               ; preds = %25
  %30 = load i32, ptr %14, align 4, !tbaa !4
  %31 = icmp sgt i32 %30, 1
  br i1 %31, label %32, label %34, !prof !11

32:                                               ; preds = %29
  %33 = add nsw i32 %30, -1
  store i32 %33, ptr %14, align 4, !tbaa !4
  br label %lean_dec.exit29

34:                                               ; preds = %29
  %.not.i = icmp eq i32 %30, 0
  br i1 %.not.i, label %lean_dec.exit29, label %35

35:                                               ; preds = %34
  tail call void @lean_dec_ref_cold(ptr noundef nonnull %14) #6
  br label %lean_dec.exit29

36:                                               ; preds = %lean_inc.exit
  %37 = ptrtoint ptr %3 to i64
  %38 = and i64 %37, 1
  %.not44 = icmp eq i64 %38, 0
  br i1 %.not44, label %39, label %lean_dec.exit28

39:                                               ; preds = %36
  %40 = load i32, ptr %3, align 4, !tbaa !4
  %41 = icmp sgt i32 %40, 1
  br i1 %41, label %42, label %44, !prof !11

42:                                               ; preds = %39
  %43 = add nsw i32 %40, -1
  store i32 %43, ptr %3, align 4, !tbaa !4
  br label %lean_dec.exit28

44:                                               ; preds = %39
  %.not.i30 = icmp eq i32 %40, 0
  br i1 %.not.i30, label %lean_dec.exit28, label %45

45:                                               ; preds = %44
  tail call void @lean_dec_ref_cold(ptr noundef nonnull %3) #6
  br label %lean_dec.exit28

lean_dec.exit28:                                  ; preds = %45, %44, %42, %36
  %46 = ptrtoint ptr %2 to i64
  %47 = and i64 %46, 1
  %.not45 = icmp eq i64 %47, 0
  br i1 %.not45, label %48, label %lean_dec.exit27

48:                                               ; preds = %lean_dec.exit28
  %49 = load i32, ptr %2, align 4, !tbaa !4
  %50 = icmp sgt i32 %49, 1
  br i1 %50, label %51, label %53, !prof !11

51:                                               ; preds = %48
  %52 = add nsw i32 %49, -1
  store i32 %52, ptr %2, align 4, !tbaa !4
  br label %lean_dec.exit27

53:                                               ; preds = %48
  %.not.i32 = icmp eq i32 %49, 0
  br i1 %.not.i32, label %lean_dec.exit27, label %54

54:                                               ; preds = %53
  tail call void @lean_dec_ref_cold(ptr noundef nonnull %2) #6
  br label %lean_dec.exit27

lean_dec.exit27:                                  ; preds = %54, %53, %51, %lean_dec.exit28
  br i1 %.not43, label %55, label %lean_dec.exit26

55:                                               ; preds = %lean_dec.exit27
  %56 = load i32, ptr %1, align 4, !tbaa !4
  %57 = icmp sgt i32 %56, 1
  br i1 %57, label %58, label %60, !prof !11

58:                                               ; preds = %55
  %59 = add nsw i32 %56, -1
  store i32 %59, ptr %1, align 4, !tbaa !4
  br label %lean_dec.exit26

60:                                               ; preds = %55
  %.not.i34 = icmp eq i32 %56, 0
  br i1 %.not.i34, label %lean_dec.exit26, label %61

61:                                               ; preds = %60
  tail call void @lean_dec_ref_cold(ptr noundef nonnull %1) #6
  br label %lean_dec.exit26

lean_dec.exit26:                                  ; preds = %61, %60, %58, %lean_dec.exit27
  br i1 %.not, label %62, label %lean_dec.exit

62:                                               ; preds = %lean_dec.exit26
  %63 = load i32, ptr %0, align 4, !tbaa !4
  %64 = icmp sgt i32 %63, 1
  br i1 %64, label %65, label %67, !prof !11

65:                                               ; preds = %62
  %66 = add nsw i32 %63, -1
  store i32 %66, ptr %0, align 4, !tbaa !4
  br label %lean_dec.exit

67:                                               ; preds = %62
  %.not.i36 = icmp eq i32 %63, 0
  br i1 %.not.i36, label %lean_dec.exit, label %68

68:                                               ; preds = %67
  tail call void @lean_dec_ref_cold(ptr noundef nonnull %0) #6
  br label %lean_dec.exit

lean_dec.exit:                                    ; preds = %68, %67, %65, %lean_dec.exit26
  tail call void @lean_inc_heartbeat() #6
  %69 = tail call noalias ptr @mi_malloc_small(i64 noundef 16) #6
  %70 = icmp eq ptr %69, null
  br i1 %70, label %71, label %lean_alloc_ctor.exit

71:                                               ; preds = %lean_dec.exit
  tail call void @lean_internal_panic_out_of_memory() #7
  unreachable

lean_alloc_ctor.exit:                             ; preds = %lean_dec.exit
  %72 = getelementptr inbounds nuw i8, ptr %69, i64 4
  store i32 1, ptr %69, align 4, !tbaa !4
  store i32 65552, ptr %72, align 4
  %73 = getelementptr inbounds nuw i8, ptr %69, i64 8
  store ptr %14, ptr %73, align 8, !tbaa !9
  tail call void @lean_inc_heartbeat() #6
  %74 = tail call noalias ptr @mi_malloc_small(i64 noundef 24) #6
  %75 = icmp eq ptr %74, null
  br i1 %75, label %76, label %lean_alloc_ctor.exit42

76:                                               ; preds = %lean_alloc_ctor.exit
  tail call void @lean_internal_panic_out_of_memory() #7
  unreachable

lean_alloc_ctor.exit42:                           ; preds = %lean_alloc_ctor.exit
  %77 = getelementptr inbounds nuw i8, ptr %74, i64 4
  store i32 1, ptr %74, align 4, !tbaa !4
  store i32 16908312, ptr %77, align 4
  %78 = getelementptr inbounds nuw i8, ptr %74, i64 8
  store ptr %69, ptr %78, align 8, !tbaa !9
  %79 = getelementptr inbounds nuw i8, ptr %74, i64 16
  store ptr inttoptr (i64 1 to ptr), ptr %79, align 8, !tbaa !9
  br label %lean_dec.exit29

lean_dec.exit29:                                  ; preds = %25, %32, %34, %35, %lean_alloc_ctor.exit42
  %.0 = phi ptr [ %74, %lean_alloc_ctor.exit42 ], [ %26, %35 ], [ %26, %34 ], [ %26, %32 ], [ %26, %25 ]
  ret ptr %.0
}